target datalayout = "e-m:e-p270:32:32-p271:32:32-p272:64:64-i64:64-i128:128-f80:128-n8:16:32:64-S128"
target triple = "x86_64-pc-linux-gnu"

%"struct.Luau::CodeGen::FunctionStats" = type { %"class.std::__cxx11::basic_string", i32, i32, i32, i32, i32, %"class.std::vector" }
%"class.std::__cxx11::basic_string" = type { %"struct.std::__cxx11::basic_string<char>::_Alloc_hider", i64, %union.anon }
%"struct.std::__cxx11::basic_string<char>::_Alloc_hider" = type { ptr }
%union.anon = type { i64, [8 x i8] }
%"class.std::vector" = type { %"struct.std::_Vector_base" }
%"struct.std::_Vector_base" = type { %"struct.std::_Vector_base<std::vector<unsigned int>, std::allocator<std::vector<unsigned int>>>::_Vector_impl" }
%"struct.std::_Vector_base<std::vector<unsigned int>, std::allocator<std::vector<unsigned int>>>::_Vector_impl" = type { %"struct.std::_Vector_base<std::vector<unsigned int>, std::allocator<std::vector<unsigned int>>>::_Vector_impl_data" }
%"struct.std::_Vector_base<std::vector<unsigned int>, std::allocator<std::vector<unsigned int>>>::_Vector_impl_data" = type { ptr, ptr, ptr }
%"struct.Luau::CodeGen::BlockLinearizationStats" = type { i32, double }
%"struct.Luau::CodeGen::LoweringStats" = type { i32, i32, i32, i32, i32, i32, i32, i32, i32, i32, %"struct.Luau::CodeGen::BlockLinearizationStats", i32, %"class.std::vector.8" }
%"class.std::vector.8" = type { %"struct.std::_Vector_base.9" }
%"struct.std::_Vector_base.9" = type { %"struct.std::_Vector_base<Luau::CodeGen::FunctionStats, std::allocator<Luau::CodeGen::FunctionStats>>::_Vector_impl" }
%"struct.std::_Vector_base<Luau::CodeGen::FunctionStats, std::allocator<Luau::CodeGen::FunctionStats>>::_Vector_impl" = type { %"struct.std::_Vector_base<Luau::CodeGen::FunctionStats, std::allocator<Luau::CodeGen::FunctionStats>>::_Vector_impl_data" }
%"struct.std::_Vector_base<Luau::CodeGen::FunctionStats, std::allocator<Luau::CodeGen::FunctionStats>>::_Vector_impl_data" = type { ptr, ptr, ptr }

@.str.59 = private unnamed_addr constant [3 x i8] c"[]\00", align 1
@.str.60 = private unnamed_addr constant [3 x i8] c"[\0A\00", align 1
@.str.65 = private unnamed_addr constant [3 x i8] c",\0A\00", align 1
@.str.68 = private unnamed_addr constant [3 x i8] c"{\0A\00", align 1
@.str.69 = private unnamed_addr constant [50 x i8] c"                \22constPropInstructionCount\22: %u,\0A\00", align 1
@.str.70 = private unnamed_addr constant [35 x i8] c"                \22timeSeconds\22: %f\0A\00", align 1
@.str.71 = private unnamed_addr constant [14 x i8] c"            }\00", align 1
@.str.72 = private unnamed_addr constant [35 x i8] c"            \22totalFunctions\22: %u,\0A\00", align 1
@.str.73 = private unnamed_addr constant [37 x i8] c"            \22skippedFunctions\22: %u,\0A\00", align 1
@.str.74 = private unnamed_addr constant [33 x i8] c"            \22spillsToSlot\22: %d,\0A\00", align 1
@.str.75 = private unnamed_addr constant [36 x i8] c"            \22spillsToRestore\22: %d,\0A\00", align 1
@.str.76 = private unnamed_addr constant [38 x i8] c"            \22maxSpillSlotsUsed\22: %u,\0A\00", align 1
@.str.77 = private unnamed_addr constant [33 x i8] c"            \22blocksPreOpt\22: %u,\0A\00", align 1
@.str.78 = private unnamed_addr constant [34 x i8] c"            \22blocksPostOpt\22: %u,\0A\00", align 1
@.str.79 = private unnamed_addr constant [41 x i8] c"            \22maxBlockInstructions\22: %u,\0A\00", align 1
@.str.80 = private unnamed_addr constant [35 x i8] c"            \22regAllocErrors\22: %d,\0A\00", align 1
@.str.81 = private unnamed_addr constant [35 x i8] c"            \22loweringErrors\22: %d,\0A\00", align 1
@.str.82 = private unnamed_addr constant [40 x i8] c"            \22blockLinearizationStats\22: \00", align 1
@.str.83 = private unnamed_addr constant [26 x i8] c"            \22functions\22: \00", align 1
@.str.84 = private unnamed_addr constant [15 x i8] c"\0A            ]\00", align 1
@.str.85 = private unnamed_addr constant [11 x i8] c"\0A        }\00", align 1

; Function Attrs: mustprogress nounwind uwtable
define linkonce_odr dso_local noundef nonnull align 8 dereferenceable(80) ptr @_ZNKSt6vectorIN4Luau7CodeGen13FunctionStatsESaIS2_EEixEm(ptr noundef nonnull align 8 dereferenceable(24) %0, i64 noundef %1) #1 comdat align 2 {
  %3 = alloca ptr, align 8
  %4 = alloca i64, align 8
  store ptr %0, ptr %3, align 8
  store i64 %1, ptr %4, align 8
  %5 = load ptr, ptr %3, align 8
  %6 = getelementptr inbounds %"struct.std::_Vector_base.9", ptr %5, i32 0, i32 0
  %7 = getelementptr inbounds %"struct.std::_Vector_base<Luau::CodeGen::FunctionStats, std::allocator<Luau::CodeGen::FunctionStats>>::_Vector_impl_data", ptr %6, i32 0, i32 0
  %8 = load ptr, ptr %7, align 8
  %9 = load i64, ptr %4, align 8
  %10 = getelementptr inbounds %"struct.Luau::CodeGen::FunctionStats", ptr %8, i64 %9
  ret ptr %10
}

; Function Attrs: mustprogress nounwind uwtable
define linkonce_odr dso_local noundef i64 @_ZNKSt6vectorIN4Luau7CodeGen13FunctionStatsESaIS2_EE4sizeEv(ptr noundef nonnull align 8 dereferenceable(24) %0) #1 comdat align 2 {
  %2 = alloca ptr, align 8
  store ptr %0, ptr %2, align 8
  %3 = load ptr, ptr %2, align 8
  %4 = getelementptr inbounds %"struct.std::_Vector_base.9", ptr %3, i32 0, i32 0
  %5 = getelementptr inbounds %"struct.std::_Vector_base<Luau::CodeGen::FunctionStats, std::allocator<Luau::CodeGen::FunctionStats>>::_Vector_impl_data", ptr %4, i32 0, i32 1
  %6 = load ptr, ptr %5, align 8
  %7 = getelementptr inbounds %"struct.std::_Vector_base.9", ptr %3, i32 0, i32 0
  %8 = getelementptr inbounds %"struct.std::_Vector_base<Luau::CodeGen::FunctionStats, std::allocator<Luau::CodeGen::FunctionStats>>::_Vector_impl_data", ptr %7, i32 0, i32 0
  %9 = load ptr, ptr %8, align 8
  %10 = ptrtoint ptr %6 to i64
  %11 = ptrtoint ptr %9 to i64
  %12 = sub i64 %10, %11
  %13 = sdiv exact i64 %12, 80
  ret i64 %13
}

; Function Attrs: mustprogress nounwind uwtable
define dso_local void @_Z32serializeBlockLinearizationStatsP8_IO_FILERKN4Luau7CodeGen23BlockLinearizationStatsE(ptr noundef %0, ptr noundef nonnull align 8 dereferenceable(16) %1) #1 {
  %3 = alloca ptr, align 8
  %4 = alloca ptr, align 8
  store ptr %0, ptr %3, align 8
  store ptr %1, ptr %4, align 8
  %5 = load ptr, ptr %3, align 8
  %6 = call i32 (ptr, ptr, ...) @fprintf(ptr noundef %5, ptr noundef @.str.68) #16
  %7 = load ptr, ptr %3, align 8
  %8 = load ptr, ptr %4, align 8
  %9 = getelementptr inbounds %"struct.Luau::CodeGen::BlockLinearizationStats", ptr %8, i32 0, i32 0
  %10 = load i32, ptr %9, align 8
  %11 = call i32 (ptr, ptr, ...) @fprintf(ptr noundef %7, ptr noundef @.str.69, i32 noundef %10) #16
  %12 = load ptr, ptr %3, align 8
  %13 = load ptr, ptr %4, align 8
  %14 = getelementptr inbounds %"struct.Luau::CodeGen::BlockLinearizationStats", ptr %13, i32 0, i32 1
  %15 = load double, ptr %14, align 8
  %16 = call i32 (ptr, ptr, ...) @fprintf(ptr noundef %12, ptr noundef @.str.70, double noundef %15) #16
  %17 = load ptr, ptr %3, align 8
  %18 = call i32 (ptr, ptr, ...) @fprintf(ptr noundef %17, ptr noundef @.str.71) #16
  ret void
}

; Function Attrs: mustprogress nounwind uwtable
define dso_local void @_Z22serializeLoweringStatsP8_IO_FILERKN4Luau7CodeGen13LoweringStatsE(ptr noundef %0, ptr noundef nonnull align 8 dereferenceable(88) %1) #1 {
  %3 = alloca ptr, align 8
  %4 = alloca ptr, align 8
  %5 = alloca i64, align 8
  %6 = alloca i64, align 8
  store ptr %0, ptr %3, align 8
  store ptr %1, ptr %4, align 8
  %7 = load ptr, ptr %3, align 8
  %8 = call i32 (ptr, ptr, ...) @fprintf(ptr noundef %7, ptr noundef @.str.68) #16
  %9 = load ptr, ptr %3, align 8
  %10 = load ptr, ptr %4, align 8
  %11 = getelementptr inbounds %"struct.Luau::CodeGen::LoweringStats", ptr %10, i32 0, i32 0
  %12 = load i32, ptr %11, align 8
  %13 = call i32 (ptr, ptr, ...) @fprintf(ptr noundef %9, ptr noundef @.str.72, i32 noundef %12) #16
  %14 = load ptr, ptr %3, align 8
  %15 = load ptr, ptr %4, align 8
  %16 = getelementptr inbounds %"struct.Luau::CodeGen::LoweringStats", ptr %15, i32 0, i32 1
  %17 = load i32, ptr %16, align 4
  %18 = call i32 (ptr, ptr, ...) @fprintf(ptr noundef %14, ptr noundef @.str.73, i32 noundef %17) #16
  %19 = load ptr, ptr %3, align 8
  %20 = load ptr, ptr %4, align 8
  %21 = getelementptr inbounds %"struct.Luau::CodeGen::LoweringStats", ptr %20, i32 0, i32 2
  %22 = load i32, ptr %21, align 8
  %23 = call i32 (ptr, ptr, ...) @fprintf(ptr noundef %19, ptr noundef @.str.74, i32 noundef %22) #16
  %24 = load ptr, ptr %3, align 8
  %25 = load ptr, ptr %4, align 8
  %26 = getelementptr inbounds %"struct.Luau::CodeGen::LoweringStats", ptr %25, i32 0, i32 3
  %27 = load i32, ptr %26, align 4
  %28 = call i32 (ptr, ptr, ...) @fprintf(ptr noundef %24, ptr noundef @.str.75, i32 noundef %27) #16
  %29 = load ptr, ptr %3, align 8
  %30 = load ptr, ptr %4, align 8
  %31 = getelementptr inbounds %"struct.Luau::CodeGen::LoweringStats", ptr %30, i32 0, i32 4
  %32 = load i32, ptr %31, align 8
  %33 = call i32 (ptr, ptr, ...) @fprintf(ptr noundef %29, ptr noundef @.str.76, i32 noundef %32) #16
  %34 = load ptr, ptr %3, align 8
  %35 = load ptr, ptr %4, align 8
  %36 = getelementptr inbounds %"struct.Luau::CodeGen::LoweringStats", ptr %35, i32 0, i32 5
  %37 = load i32, ptr %36, align 4
  %38 = call i32 (ptr, ptr, ...) @fprintf(ptr noundef %34, ptr noundef @.str.77, i32 noundef %37) #16
  %39 = load ptr, ptr %3, align 8
  %40 = load ptr, ptr %4, align 8
  %41 = getelementptr inbounds %"struct.Luau::CodeGen::LoweringStats", ptr %40, i32 0, i32 6
  %42 = load i32, ptr %41, align 8
  %43 = call i32 (ptr, ptr, ...) @fprintf(ptr noundef %39, ptr noundef @.str.78, i32 noundef %42) #16
  %44 = load ptr, ptr %3, align 8
  %45 = load ptr, ptr %4, align 8
  %46 = getelementptr inbounds %"struct.Luau::CodeGen::LoweringStats", ptr %45, i32 0, i32 7
  %47 = load i32, ptr %46, align 4
  %48 = call i32 (ptr, ptr, ...) @fprintf(ptr noundef %44, ptr noundef @.str.79, i32 noundef %47) #16
  %49 = load ptr, ptr %3, align 8
  %50 = load ptr, ptr %4, align 8
  %51 = getelementptr inbounds %"struct.Luau::CodeGen::LoweringStats", ptr %50, i32 0, i32 8
  %52 = load i32, ptr %51, align 8
  %53 = call i32 (ptr, ptr, ...) @fprintf(ptr noundef %49, ptr noundef @.str.80, i32 noundef %52) #16
  %54 = load ptr, ptr %3, align 8
  %55 = load ptr, ptr %4, align 8
  %56 = getelementptr inbounds %"struct.Luau::CodeGen::LoweringStats", ptr %55, i32 0, i32 9
  %57 = load i32, ptr %56, align 4
  %58 = call i32 (ptr, ptr, ...) @fprintf(ptr noundef %54, ptr noundef @.str.81, i32 noundef %57) #16
  %59 = load ptr, ptr %3, align 8
  %60 = call i32 (ptr, ptr, ...) @fprintf(ptr noundef %59, ptr noundef @.str.82) #16
  %61 = load ptr, ptr %3, align 8
  %62 = load ptr, ptr %4, align 8
  %63 = getelementptr inbounds %"struct.Luau::CodeGen::LoweringStats", ptr %62, i32 0, i32 10
  call void @_Z32serializeBlockLinearizationStatsP8_IO_FILERKN4Luau7CodeGen23BlockLinearizationStatsE(ptr noundef %61, ptr noundef nonnull align 8 dereferenceable(16) %63)
  %64 = load ptr, ptr %3, align 8
  %65 = call i32 (ptr, ptr, ...) @fprintf(ptr noundef %64, ptr noundef @.str.65) #16
  %66 = load ptr, ptr %3, align 8
  %67 = call i32 (ptr, ptr, ...) @fprintf(ptr noundef %66, ptr noundef @.str.83) #16
  %68 = load ptr, ptr %4, align 8
  %69 = getelementptr inbounds %"struct.Luau::CodeGen::LoweringStats", ptr %68, i32 0, i32 12
  %70 = call noundef i64 @_ZNKSt6vectorIN4Luau7CodeGen13FunctionStatsESaIS2_EE4sizeEv(ptr noundef nonnull align 8 dereferenceable(24) %69) #16
  store i64 %70, ptr %5, align 8
  %71 = load i64, ptr %5, align 8
  %72 = icmp eq i64 %71, 0
  br i1 %72, label %73, label %76

73:                                               ; preds = %2
  %74 = load ptr, ptr %3, align 8
  %75 = call i32 (ptr, ptr, ...) @fprintf(ptr noundef %74, ptr noundef @.str.59) #16
  br label %103

76:                                               ; preds = %2
  %77 = load ptr, ptr %3, align 8
  %78 = call i32 (ptr, ptr, ...) @fprintf(ptr noundef %77, ptr noundef @.str.60) #16
  store i64 0, ptr %6, align 8
  br label %79

79:                                               ; preds = %97, %76
  %80 = load i64, ptr %6, align 8
  %81 = load i64, ptr %5, align 8
  %82 = icmp ult i64 %80, %81
  br i1 %82, label %83, label %100

83:                                               ; preds = %79
  %84 = load ptr, ptr %3, align 8
  %85 = load ptr, ptr %4, align 8
  %86 = getelementptr inbounds %"struct.Luau::CodeGen::LoweringStats", ptr %85, i32 0, i32 12
  %87 = load i64, ptr %6, align 8
  %88 = call noundef nonnull align 8 dereferenceable(80) ptr @_ZNKSt6vectorIN4Luau7CodeGen13FunctionStatsESaIS2_EEixEm(ptr noundef nonnull align 8 dereferenceable(24) %86, i64 noundef %87) #16
  call void @_Z22serializeFunctionStatsP8_IO_FILERKN4Luau7CodeGen13FunctionStatsE(ptr noundef %84, ptr noundef nonnull align 8 dereferenceable(80) %88)
  %89 = load i64, ptr %6, align 8
  %90 = load i64, ptr %5, align 8
  %91 = sub i64 %90, 1
  %92 = icmp ult i64 %89, %91
  br i1 %92, label %93, label %96

93:                                               ; preds = %83
  %94 = load ptr, ptr %3, align 8
  %95 = call i32 (ptr, ptr, ...) @fprintf(ptr noundef %94, ptr noundef @.str.65) #16
  br label %96

96:                                               ; preds = %93, %83
  br label %97

97:                                               ; preds = %96
  %98 = load i64, ptr %6, align 8
  %99 = add i64 %98, 1
  store i64 %99, ptr %6, align 8
  br label %79, !llvm.loop !8

100:                                              ; preds = %79
  %101 = load ptr, ptr %3, align 8
  %102 = call i32 (ptr, ptr, ...) @fprintf(ptr noundef %101, ptr noundef @.str.84) #16
  br label %103

103:                                              ; preds = %100, %73
  %104 = load ptr, ptr %3, align 8
  %105 = call i32 (ptr, ptr, ...) @fprintf(ptr noundef %104, ptr noundef @.str.85) #16
  ret void
}