; Function Attrs: mustprogress nounwind uwtable
define dso_local void @_Z22serializeLoweringStatsP8_IO_FILERKN4Luau7CodeGen13LoweringStatsE(ptr nocapture noundef %0, ptr nocapture noundef nonnull readonly align 8 dereferenceable(88) %1) local_unnamed_addr #1 {
  %3 = tail call i64 @fwrite(ptr nonnull @.str.68, i64 2, i64 1, ptr %0)
  %4 = load i32, ptr %1, align 8
  %5 = tail call i32 (ptr, ptr, ...) @fprintf(ptr noundef %0, ptr noundef nonnull @.str.72, i32 noundef %4) #23
  %6 = getelementptr inbounds i8, ptr %1, i64 4
  %7 = load i32, ptr %6, align 4
  %8 = tail call i32 (ptr, ptr, ...) @fprintf(ptr noundef %0, ptr noundef nonnull @.str.73, i32 noundef %7) #23
  %9 = getelementptr inbounds i8, ptr %1, i64 8
  %10 = load i32, ptr %9, align 8
  %11 = tail call i32 (ptr, ptr, ...) @fprintf(ptr noundef %0, ptr noundef nonnull @.str.74, i32 noundef %10) #23
  %12 = getelementptr inbounds i8, ptr %1, i64 12
  %13 = load i32, ptr %12, align 4
  %14 = tail call i32 (ptr, ptr, ...) @fprintf(ptr noundef %0, ptr noundef nonnull @.str.75, i32 noundef %13) #23
  %15 = getelementptr inbounds i8, ptr %1, i64 16
  %16 = load i32, ptr %15, align 8
  %17 = tail call i32 (ptr, ptr, ...) @fprintf(ptr noundef %0, ptr noundef nonnull @.str.76, i32 noundef %16) #23
  %18 = getelementptr inbounds i8, ptr %1, i64 20
  %19 = load i32, ptr %18, align 4
  %20 = tail call i32 (ptr, ptr, ...) @fprintf(ptr noundef %0, ptr noundef nonnull @.str.77, i32 noundef %19) #23
  %21 = getelementptr inbounds i8, ptr %1, i64 24
  %22 = load i32, ptr %21, align 8
  %23 = tail call i32 (ptr, ptr, ...) @fprintf(ptr noundef %0, ptr noundef nonnull @.str.78, i32 noundef %22) #23
  %24 = getelementptr inbounds i8, ptr %1, i64 28
  %25 = load i32, ptr %24, align 4
  %26 = tail call i32 (ptr, ptr, ...) @fprintf(ptr noundef %0, ptr noundef nonnull @.str.79, i32 noundef %25) #23
  %27 = getelementptr inbounds i8, ptr %1, i64 32
  %28 = load i32, ptr %27, align 8
  %29 = tail call i32 (ptr, ptr, ...) @fprintf(ptr noundef %0, ptr noundef nonnull @.str.80, i32 noundef %28) #23
  %30 = getelementptr inbounds i8, ptr %1, i64 36
  %31 = load i32, ptr %30, align 4
  %32 = tail call i32 (ptr, ptr, ...) @fprintf(ptr noundef %0, ptr noundef nonnull @.str.81, i32 noundef %31) #23
  %33 = tail call i64 @fwrite(ptr nonnull @.str.82, i64 39, i64 1, ptr %0)
  %34 = getelementptr inbounds i8, ptr %1, i64 40
  %35 = tail call i64 @fwrite(ptr nonnull @.str.68, i64 2, i64 1, ptr %0)
  %36 = load i32, ptr %34, align 8
  %37 = tail call i32 (ptr, ptr, ...) @fprintf(ptr noundef %0, ptr noundef nonnull @.str.69, i32 noundef %36) #23
  %38 = getelementptr inbounds i8, ptr %1, i64 48
  %39 = load double, ptr %38, align 8
  %40 = tail call i32 (ptr, ptr, ...) @fprintf(ptr noundef %0, ptr noundef nonnull @.str.70, double noundef %39) #23
  %41 = tail call i64 @fwrite(ptr nonnull @.str.71, i64 13, i64 1, ptr %0)
  %42 = tail call i64 @fwrite(ptr nonnull @.str.65, i64 2, i64 1, ptr %0)
  %43 = tail call i64 @fwrite(ptr nonnull @.str.83, i64 25, i64 1, ptr %0)
  %44 = getelementptr inbounds i8, ptr %1, i64 64
  %45 = getelementptr inbounds i8, ptr %1, i64 72
  %46 = load ptr, ptr %45, align 8
  %47 = load ptr, ptr %44, align 8
  %48 = icmp eq ptr %46, %47
  br i1 %48, label %49, label %.lr.ph

49:                                               ; preds = %2
  %50 = tail call i64 @fwrite(ptr nonnull @.str.59, i64 2, i64 1, ptr %0)
  br label %66

.lr.ph:                                           ; preds = %2
  %51 = ptrtoint ptr %46 to i64
  %52 = ptrtoint ptr %47 to i64
  %53 = sub i64 %51, %52
  %54 = sdiv exact i64 %53, 80
  %55 = tail call i64 @fwrite(ptr nonnull @.str.60, i64 2, i64 1, ptr %0)
  %56 = add nsw i64 %54, -1
  %umax = tail call i64 @llvm.umax.i64(i64 %54, i64 1)
  br label %57

57:                                               ; preds = %.lr.ph, %63
  %.041 = phi i64 [ 0, %.lr.ph ], [ %64, %63 ]
  %58 = load ptr, ptr %44, align 8
  %59 = getelementptr inbounds %"struct.Luau::CodeGen::FunctionStats", ptr %58, i64 %.041
  tail call void @_Z22serializeFunctionStatsP8_IO_FILERKN4Luau7CodeGen13FunctionStatsE(ptr noundef %0, ptr noundef nonnull align 8 dereferenceable(80) %59)
  %60 = icmp ult i64 %.041, %56
  br i1 %60, label %61, label %63

61:                                               ; preds = %57
  %62 = tail call i64 @fwrite(ptr nonnull @.str.65, i64 2, i64 1, ptr %0)
  br label %63

63:                                               ; preds = %57, %61
  %64 = add nuw i64 %.041, 1
  %exitcond.not = icmp eq i64 %64, %umax
  br i1 %exitcond.not, label %._crit_edge, label %57, !llvm.loop !8

._crit_edge:                                      ; preds = %63
  %65 = tail call i64 @fwrite(ptr nonnull @.str.84, i64 14, i64 1, ptr %0)
  br label %66

66:                                               ; preds = %._crit_edge, %49
  %67 = tail call i64 @fwrite(ptr nonnull @.str.85, i64 10, i64 1, ptr %0)
  ret void
}